; Function Attrs: nounwind uwtable
define noalias ptr @l_Array_forIn_x27Unsafe_loop___at_Lean_Elab_Tactic_evalGeneralize___spec__7___boxed(ptr noundef %0, ptr noundef %1, ptr noundef %2, ptr noundef %3, ptr noundef %4, ptr noundef %5, ptr noundef %6, ptr noundef %7, ptr noundef %8, ptr noundef %9, ptr noundef %10, ptr noundef %11, ptr noundef %12, ptr noundef %13, ptr noundef %14, ptr noundef %15) local_unnamed_addr #0 {
  %17 = getelementptr i8, ptr %4, i64 8
  %.val67 = load i64, ptr %17, align 8, !tbaa !13
  %18 = ptrtoint ptr %4 to i64
  %19 = and i64 %18, 1
  %.not = icmp eq i64 %19, 0
  br i1 %.not, label %20, label %lean_dec.exit42

20:                                               ; preds = %16
  %21 = load i32, ptr %4, align 4, !tbaa !4
  %22 = icmp sgt i32 %21, 1
  br i1 %22, label %23, label %25, !prof !11

23:                                               ; preds = %20
  %24 = add nsw i32 %21, -1
  store i32 %24, ptr %4, align 4, !tbaa !4
  br label %lean_dec.exit42

25:                                               ; preds = %20
  %.not.i = icmp eq i32 %21, 0
  br i1 %.not.i, label %lean_dec.exit42, label %26

26:                                               ; preds = %25
  tail call void @lean_dec_ref_cold(ptr noundef nonnull %4) #4
  br label %lean_dec.exit42

lean_dec.exit42:                                  ; preds = %26, %25, %23, %16
  %27 = getelementptr i8, ptr %5, i64 8
  %.val = load i64, ptr %27, align 8, !tbaa !13
  %28 = ptrtoint ptr %5 to i64
  %29 = and i64 %28, 1
  %.not68 = icmp eq i64 %29, 0
  br i1 %.not68, label %30, label %lean_dec.exit41

30:                                               ; preds = %lean_dec.exit42
  %31 = load i32, ptr %5, align 4, !tbaa !4
  %32 = icmp sgt i32 %31, 1
  br i1 %32, label %33, label %35, !prof !11

33:                                               ; preds = %30
  %34 = add nsw i32 %31, -1
  store i32 %34, ptr %5, align 4, !tbaa !4
  br label %lean_dec.exit41

35:                                               ; preds = %30
  %.not.i43 = icmp eq i32 %31, 0
  br i1 %.not.i43, label %lean_dec.exit41, label %36

36:                                               ; preds = %35
  tail call void @lean_dec_ref_cold(ptr noundef nonnull %5) #4
  br label %lean_dec.exit41

lean_dec.exit41:                                  ; preds = %36, %35, %33, %lean_dec.exit42
  %37 = tail call ptr @l_Array_forIn_x27Unsafe_loop___at_Lean_Elab_Tactic_evalGeneralize___spec__7(ptr poison, ptr poison, ptr noundef %2, ptr noundef %3, i64 noundef %.val67, i64 noundef %.val, ptr noundef %6, ptr poison, ptr poison, ptr poison, ptr poison, ptr poison, ptr poison, ptr poison, ptr poison, ptr noundef %15)
  %38 = ptrtoint ptr %14 to i64
  %39 = and i64 %38, 1
  %.not69 = icmp eq i64 %39, 0
  br i1 %.not69, label %40, label %lean_dec.exit40

40:                                               ; preds = %lean_dec.exit41
  %41 = load i32, ptr %14, align 4, !tbaa !4
  %42 = icmp sgt i32 %41, 1
  br i1 %42, label %43, label %45, !prof !11

43:                                               ; preds = %40
  %44 = add nsw i32 %41, -1
  store i32 %44, ptr %14, align 4, !tbaa !4
  br label %lean_dec.exit40

45:                                               ; preds = %40
  %.not.i45 = icmp eq i32 %41, 0
  br i1 %.not.i45, label %lean_dec.exit40, label %46

46:                                               ; preds = %45
  tail call void @lean_dec_ref_cold(ptr noundef nonnull %14) #4
  br label %lean_dec.exit40

lean_dec.exit40:                                  ; preds = %46, %45, %43, %lean_dec.exit41
  %47 = ptrtoint ptr %13 to i64
  %48 = and i64 %47, 1
  %.not70 = icmp eq i64 %48, 0
  br i1 %.not70, label %49, label %lean_dec.exit39

49:                                               ; preds = %lean_dec.exit40
  %50 = load i32, ptr %13, align 4, !tbaa !4
  %51 = icmp sgt i32 %50, 1
  br i1 %51, label %52, label %54, !prof !11

52:                                               ; preds = %49
  %53 = add nsw i32 %50, -1
  store i32 %53, ptr %13, align 4, !tbaa !4
  br label %lean_dec.exit39

54:                                               ; preds = %49
  %.not.i47 = icmp eq i32 %50, 0
  br i1 %.not.i47, label %lean_dec.exit39, label %55

55:                                               ; preds = %54
  tail call void @lean_dec_ref_cold(ptr noundef nonnull %13) #4
  br label %lean_dec.exit39

lean_dec.exit39:                                  ; preds = %55, %54, %52, %lean_dec.exit40
  %56 = ptrtoint ptr %12 to i64
  %57 = and i64 %56, 1
  %.not71 = icmp eq i64 %57, 0
  br i1 %.not71, label %58, label %lean_dec.exit38

58:                                               ; preds = %lean_dec.exit39
  %59 = load i32, ptr %12, align 4, !tbaa !4
  %60 = icmp sgt i32 %59, 1
  br i1 %60, label %61, label %63, !prof !11

61:                                               ; preds = %58
  %62 = add nsw i32 %59, -1
  store i32 %62, ptr %12, align 4, !tbaa !4
  br label %lean_dec.exit38

63:                                               ; preds = %58
  %.not.i49 = icmp eq i32 %59, 0
  br i1 %.not.i49, label %lean_dec.exit38, label %64

64:                                               ; preds = %63
  tail call void @lean_dec_ref_cold(ptr noundef nonnull %12) #4
  br label %lean_dec.exit38

lean_dec.exit38:                                  ; preds = %64, %63, %61, %lean_dec.exit39
  %65 = ptrtoint ptr %11 to i64
  %66 = and i64 %65, 1
  %.not72 = icmp eq i64 %66, 0
  br i1 %.not72, label %67, label %lean_dec.exit37

67:                                               ; preds = %lean_dec.exit38
  %68 = load i32, ptr %11, align 4, !tbaa !4
  %69 = icmp sgt i32 %68, 1
  br i1 %69, label %70, label %72, !prof !11

70:                                               ; preds = %67
  %71 = add nsw i32 %68, -1
  store i32 %71, ptr %11, align 4, !tbaa !4
  br label %lean_dec.exit37

72:                                               ; preds = %67
  %.not.i51 = icmp eq i32 %68, 0
  br i1 %.not.i51, label %lean_dec.exit37, label %73

73:                                               ; preds = %72
  tail call void @lean_dec_ref_cold(ptr noundef nonnull %11) #4
  br label %lean_dec.exit37

lean_dec.exit37:                                  ; preds = %73, %72, %70, %lean_dec.exit38
  %74 = ptrtoint ptr %10 to i64
  %75 = and i64 %74, 1
  %.not73 = icmp eq i64 %75, 0
  br i1 %.not73, label %76, label %lean_dec.exit36

76:                                               ; preds = %lean_dec.exit37
  %77 = load i32, ptr %10, align 4, !tbaa !4
  %78 = icmp sgt i32 %77, 1
  br i1 %78, label %79, label %81, !prof !11

79:                                               ; preds = %76
  %80 = add nsw i32 %77, -1
  store i32 %80, ptr %10, align 4, !tbaa !4
  br label %lean_dec.exit36

81:                                               ; preds = %76
  %.not.i53 = icmp eq i32 %77, 0
  br i1 %.not.i53, label %lean_dec.exit36, label %82

82:                                               ; preds = %81
  tail call void @lean_dec_ref_cold(ptr noundef nonnull %10) #4
  br label %lean_dec.exit36

lean_dec.exit36:                                  ; preds = %82, %81, %79, %lean_dec.exit37
  %83 = ptrtoint ptr %9 to i64
  %84 = and i64 %83, 1
  %.not74 = icmp eq i64 %84, 0
  br i1 %.not74, label %85, label %lean_dec.exit35

85:                                               ; preds = %lean_dec.exit36
  %86 = load i32, ptr %9, align 4, !tbaa !4
  %87 = icmp sgt i32 %86, 1
  br i1 %87, label %88, label %90, !prof !11

88:                                               ; preds = %85
  %89 = add nsw i32 %86, -1
  store i32 %89, ptr %9, align 4, !tbaa !4
  br label %lean_dec.exit35

90:                                               ; preds = %85
  %.not.i55 = icmp eq i32 %86, 0
  br i1 %.not.i55, label %lean_dec.exit35, label %91

91:                                               ; preds = %90
  tail call void @lean_dec_ref_cold(ptr noundef nonnull %9) #4
  br label %lean_dec.exit35

lean_dec.exit35:                                  ; preds = %91, %90, %88, %lean_dec.exit36
  %92 = ptrtoint ptr %8 to i64
  %93 = and i64 %92, 1
  %.not75 = icmp eq i64 %93, 0
  br i1 %.not75, label %94, label %lean_dec.exit34

94:                                               ; preds = %lean_dec.exit35
  %95 = load i32, ptr %8, align 4, !tbaa !4
  %96 = icmp sgt i32 %95, 1
  br i1 %96, label %97, label %99, !prof !11

97:                                               ; preds = %94
  %98 = add nsw i32 %95, -1
  store i32 %98, ptr %8, align 4, !tbaa !4
  br label %lean_dec.exit34

99:                                               ; preds = %94
  %.not.i57 = icmp eq i32 %95, 0
  br i1 %.not.i57, label %lean_dec.exit34, label %100

100:                                              ; preds = %99
  tail call void @lean_dec_ref_cold(ptr noundef nonnull %8) #4
  br label %lean_dec.exit34

lean_dec.exit34:                                  ; preds = %100, %99, %97, %lean_dec.exit35
  %101 = ptrtoint ptr %7 to i64
  %102 = and i64 %101, 1
  %.not76 = icmp eq i64 %102, 0
  br i1 %.not76, label %103, label %lean_dec.exit33

103:                                              ; preds = %lean_dec.exit34
  %104 = load i32, ptr %7, align 4, !tbaa !4
  %105 = icmp sgt i32 %104, 1
  br i1 %105, label %106, label %108, !prof !11

106:                                              ; preds = %103
  %107 = add nsw i32 %104, -1
  store i32 %107, ptr %7, align 4, !tbaa !4
  br label %lean_dec.exit33

108:                                              ; preds = %103
  %.not.i59 = icmp eq i32 %104, 0
  br i1 %.not.i59, label %lean_dec.exit33, label %109

109:                                              ; preds = %108
  tail call void @lean_dec_ref_cold(ptr noundef nonnull %7) #4
  br label %lean_dec.exit33

lean_dec.exit33:                                  ; preds = %109, %108, %106, %lean_dec.exit34
  %110 = ptrtoint ptr %3 to i64
  %111 = and i64 %110, 1
  %.not77 = icmp eq i64 %111, 0
  br i1 %.not77, label %112, label %lean_dec.exit32

112:                                              ; preds = %lean_dec.exit33
  %113 = load i32, ptr %3, align 4, !tbaa !4
  %114 = icmp sgt i32 %113, 1
  br i1 %114, label %115, label %117, !prof !11

115:                                              ; preds = %112
  %116 = add nsw i32 %113, -1
  store i32 %116, ptr %3, align 4, !tbaa !4
  br label %lean_dec.exit32

117:                                              ; preds = %112
  %.not.i61 = icmp eq i32 %113, 0
  br i1 %.not.i61, label %lean_dec.exit32, label %118

118:                                              ; preds = %117
  tail call void @lean_dec_ref_cold(ptr noundef nonnull %3) #4
  br label %lean_dec.exit32

lean_dec.exit32:                                  ; preds = %118, %117, %115, %lean_dec.exit33
  %119 = ptrtoint ptr %1 to i64
  %120 = and i64 %119, 1
  %.not78 = icmp eq i64 %120, 0
  br i1 %.not78, label %121, label %lean_dec.exit31

121:                                              ; preds = %lean_dec.exit32
  %122 = load i32, ptr %1, align 4, !tbaa !4
  %123 = icmp sgt i32 %122, 1
  br i1 %123, label %124, label %126, !prof !11

124:                                              ; preds = %121
  %125 = add nsw i32 %122, -1
  store i32 %125, ptr %1, align 4, !tbaa !4
  br label %lean_dec.exit31

126:                                              ; preds = %121
  %.not.i63 = icmp eq i32 %122, 0
  br i1 %.not.i63, label %lean_dec.exit31, label %127

127:                                              ; preds = %126
  tail call void @lean_dec_ref_cold(ptr noundef nonnull %1) #4
  br label %lean_dec.exit31

lean_dec.exit31:                                  ; preds = %127, %126, %124, %lean_dec.exit32
  %128 = ptrtoint ptr %0 to i64
  %129 = and i64 %128, 1
  %.not79 = icmp eq i64 %129, 0
  br i1 %.not79, label %130, label %lean_dec.exit

130:                                              ; preds = %lean_dec.exit31
  %131 = load i32, ptr %0, align 4, !tbaa !4
  %132 = icmp sgt i32 %131, 1
  br i1 %132, label %133, label %135, !prof !11

133:                                              ; preds = %130
  %134 = add nsw i32 %131, -1
  store i32 %134, ptr %0, align 4, !tbaa !4
  br label %lean_dec.exit

135:                                              ; preds = %130
  %.not.i65 = icmp eq i32 %131, 0
  br i1 %.not.i65, label %lean_dec.exit, label %136

136:                                              ; preds = %135
  tail call void @lean_dec_ref_cold(ptr noundef nonnull %0) #4
  br label %lean_dec.exit

lean_dec.exit:                                    ; preds = %136, %135, %133, %lean_dec.exit31
  ret ptr %37
}